; Function Attrs: mustprogress nounwind uwtable
define internal void @_ZNK2cv7TLSDataINS_12_GLOBAL__N_18ThreadIDEE18deleteDataInstanceEPv(ptr nonnull readnone align 8 captures(none) %0, ptr noundef %1) unnamed_addr #9 align 2 {
  %3 = icmp eq ptr %1, null
  br i1 %3, label %5, label %4

4:                                                ; preds = %2
  tail call void @_ZdlPv(ptr noundef nonnull %1) #51
  br label %5

5:                                                ; preds = %4, %2
  ret void
}